ccopy_reg
_reconstructor
p0
(csklearn.linear_model.base
LinearRegression
p1
c__builtin__
object
p2
Ntp3
Rp4
(dp5
S'normalize'
p6
I00
sS'n_jobs'
p7
I-1
sS'rank_'
p8
I4
sS'fit_intercept'
p9
I01
sS'_residues'
p10
cnumpy.core.multiarray
scalar
p11
(cnumpy
dtype
p12
(S'f8'
p13
I0
I1
tp14
Rp15
(I3
S'<'
p16
NNNI-1
I-1
I0
tp17
bS'j\xa0hq7\x00NA'
p18
tp19
Rp20
sS'coef_'
p21
cnumpy.core.multiarray
_reconstruct
p22
(cnumpy
ndarray
p23
(I0
tp24
S'b'
p25
tp26
Rp27
(I1
(I4
tp28
g15
I00
S'\x81\x04\x7fC\xf48p@\xd6\xf0\x95\xc1\x08y\xfc\xbf5o\x02\x8fC\x93\xdb?7\xbfB\xc5\xb6\xe5\x05\xc0'
p29
tp30
bsS'_sklearn_version'
p31
S'0.19.2'
p32
sS'copy_X'
p33
I01
sS'intercept_'
p34
g11
(g15
S'{\xfa\xdecq?z@'
p35
tp36
Rp37
sS'singular_'
p38
g22
(g23
(I0
tp39
g25
tp40
Rp41
(I1
(I4
tp42
g15
I00
S'\x13o_a=vR@\xc8\x92\xfa\xf1Z9J@\x89\xd1\xd8\x8d\xc7\xa0D@\xa2\xc4\x12`\x14\x1a>@'
p43
tp44
bsb.